target datalayout = "e-m:e-p270:32:32-p271:32:32-p272:64:64-i64:64-i128:128-f80:128-n8:16:32:64-S128"
target triple = "x86_64-pc-linux-gnu"

%struct.functionInfo = type { ptr, ptr, ptr, ptr, i64 }
%struct.functionLibInfo = type { ptr, ptr, ptr, ptr }
%struct.sdshdr8 = type { i8, i8, i8, [0 x i8] }
%struct.sdshdr16 = type <{ i16, i16, i8, [0 x i8] }>
%struct.sdshdr32 = type <{ i32, i32, i8, [0 x i8] }>
%struct.sdshdr64 = type <{ i64, i64, i8, [0 x i8] }>

@.str = private unnamed_addr constant [107 x i8] c"Library names can only contain letters, numbers, or underscores(_) and must be at least one character long\00", align 1
@.str.1 = private unnamed_addr constant [39 x i8] c"Function already exists in the library\00", align 1
@.str.2 = private unnamed_addr constant [15 x i8] c"res == DICT_OK\00", align 1
@.str.3 = private unnamed_addr constant [12 x i8] c"functions.c\00", align 1

; Function Attrs: inlinehint nounwind uwtable
define internal i64 @sdslen(ptr noundef %0) #8 {
  %2 = alloca i64, align 8
  %3 = alloca ptr, align 8
  %4 = alloca i8, align 1
  %5 = alloca i32, align 4
  store ptr %0, ptr %3, align 8, !tbaa !57
  call void @llvm.lifetime.start.p0(i64 1, ptr %4) #11
  %6 = load ptr, ptr %3, align 8, !tbaa !57
  %7 = getelementptr inbounds i8, ptr %6, i64 -1
  %8 = load i8, ptr %7, align 1, !tbaa !65
  store i8 %8, ptr %4, align 1, !tbaa !65
  %9 = load i8, ptr %4, align 1, !tbaa !65
  %10 = zext i8 %9 to i32
  %11 = and i32 %10, 7
  switch i32 %11, label %40 [
    i32 0, label %12
    i32 1, label %17
    i32 2, label %23
    i32 3, label %29
    i32 4, label %35
  ]

12:                                               ; preds = %1
  %13 = load i8, ptr %4, align 1, !tbaa !65
  %14 = zext i8 %13 to i32
  %15 = ashr i32 %14, 3
  %16 = sext i32 %15 to i64
  store i64 %16, ptr %2, align 8
  store i32 1, ptr %5, align 4
  br label %41

17:                                               ; preds = %1
  %18 = load ptr, ptr %3, align 8, !tbaa !57
  %19 = getelementptr inbounds i8, ptr %18, i64 -3
  %20 = getelementptr inbounds nuw %struct.sdshdr8, ptr %19, i32 0, i32 0
  %21 = load i8, ptr %20, align 1, !tbaa !65
  %22 = zext i8 %21 to i64
  store i64 %22, ptr %2, align 8
  store i32 1, ptr %5, align 4
  br label %41

23:                                               ; preds = %1
  %24 = load ptr, ptr %3, align 8, !tbaa !57
  %25 = getelementptr inbounds i8, ptr %24, i64 -5
  %26 = getelementptr inbounds nuw %struct.sdshdr16, ptr %25, i32 0, i32 0
  %27 = load i16, ptr %26, align 1, !tbaa !113
  %28 = zext i16 %27 to i64
  store i64 %28, ptr %2, align 8
  store i32 1, ptr %5, align 4
  br label %41

29:                                               ; preds = %1
  %30 = load ptr, ptr %3, align 8, !tbaa !57
  %31 = getelementptr inbounds i8, ptr %30, i64 -9
  %32 = getelementptr inbounds nuw %struct.sdshdr32, ptr %31, i32 0, i32 0
  %33 = load i32, ptr %32, align 1, !tbaa !54
  %34 = zext i32 %33 to i64
  store i64 %34, ptr %2, align 8
  store i32 1, ptr %5, align 4
  br label %41

35:                                               ; preds = %1
  %36 = load ptr, ptr %3, align 8, !tbaa !57
  %37 = getelementptr inbounds i8, ptr %36, i64 -17
  %38 = getelementptr inbounds nuw %struct.sdshdr64, ptr %37, i32 0, i32 0
  %39 = load i64, ptr %38, align 1, !tbaa !59
  store i64 %39, ptr %2, align 8
  store i32 1, ptr %5, align 4
  br label %41

40:                                               ; preds = %1
  store i64 0, ptr %2, align 8
  store i32 1, ptr %5, align 4
  br label %41

41:                                               ; preds = %40, %35, %29, %23, %17, %12
  call void @llvm.lifetime.end.p0(i64 1, ptr %4) #11
  %42 = load i64, ptr %2, align 8
  ret i64 %42
}

; Function Attrs: nounwind uwtable
define internal i32 @functionsVerifyName(ptr noundef %0) #1 {
  %2 = alloca i32, align 4
  %3 = alloca ptr, align 8
  %4 = alloca i64, align 8
  %5 = alloca i32, align 4
  %6 = alloca i8, align 1
  store ptr %0, ptr %3, align 8, !tbaa !57
  %7 = load ptr, ptr %3, align 8, !tbaa !57
  %8 = call i64 @sdslen(ptr noundef %7)
  %9 = icmp eq i64 %8, 0
  br i1 %9, label %10, label %11

10:                                               ; preds = %1
  store i32 -1, ptr %2, align 4
  br label %60

11:                                               ; preds = %1
  call void @llvm.lifetime.start.p0(i64 8, ptr %4) #11
  store i64 0, ptr %4, align 8, !tbaa !59
  br label %12

12:                                               ; preds = %54, %11
  %13 = load i64, ptr %4, align 8, !tbaa !59
  %14 = load ptr, ptr %3, align 8, !tbaa !57
  %15 = call i64 @sdslen(ptr noundef %14)
  %16 = icmp ult i64 %13, %15
  br i1 %16, label %18, label %17

17:                                               ; preds = %12
  store i32 2, ptr %5, align 4
  br label %57

18:                                               ; preds = %12
  call void @llvm.lifetime.start.p0(i64 1, ptr %6) #11
  %19 = load ptr, ptr %3, align 8, !tbaa !57
  %20 = load i64, ptr %4, align 8, !tbaa !59
  %21 = getelementptr inbounds nuw i8, ptr %19, i64 %20
  %22 = load i8, ptr %21, align 1, !tbaa !65
  store i8 %22, ptr %6, align 1, !tbaa !65
  %23 = load i8, ptr %6, align 1, !tbaa !65
  %24 = sext i8 %23 to i32
  %25 = icmp sge i32 %24, 97
  br i1 %25, label %26, label %30

26:                                               ; preds = %18
  %27 = load i8, ptr %6, align 1, !tbaa !65
  %28 = sext i8 %27 to i32
  %29 = icmp sle i32 %28, 122
  br i1 %29, label %50, label %30

30:                                               ; preds = %26, %18
  %31 = load i8, ptr %6, align 1, !tbaa !65
  %32 = sext i8 %31 to i32
  %33 = icmp sge i32 %32, 65
  br i1 %33, label %34, label %38

34:                                               ; preds = %30
  %35 = load i8, ptr %6, align 1, !tbaa !65
  %36 = sext i8 %35 to i32
  %37 = icmp sle i32 %36, 90
  br i1 %37, label %50, label %38

38:                                               ; preds = %34, %30
  %39 = load i8, ptr %6, align 1, !tbaa !65
  %40 = sext i8 %39 to i32
  %41 = icmp sge i32 %40, 48
  br i1 %41, label %42, label %46

42:                                               ; preds = %38
  %43 = load i8, ptr %6, align 1, !tbaa !65
  %44 = sext i8 %43 to i32
  %45 = icmp sle i32 %44, 57
  br i1 %45, label %50, label %46

46:                                               ; preds = %42, %38
  %47 = load i8, ptr %6, align 1, !tbaa !65
  %48 = sext i8 %47 to i32
  %49 = icmp eq i32 %48, 95
  br i1 %49, label %50, label %51

50:                                               ; preds = %46, %42, %34, %26
  store i32 4, ptr %5, align 4
  br label %52

51:                                               ; preds = %46
  store i32 -1, ptr %2, align 4
  store i32 1, ptr %5, align 4
  br label %52

52:                                               ; preds = %51, %50
  call void @llvm.lifetime.end.p0(i64 1, ptr %6) #11
  %53 = load i32, ptr %5, align 4
  switch i32 %53, label %57 [
    i32 4, label %54
  ]

54:                                               ; preds = %52
  %55 = load i64, ptr %4, align 8, !tbaa !59
  %56 = add i64 %55, 1
  store i64 %56, ptr %4, align 8, !tbaa !59
  br label %12, !llvm.loop !66

57:                                               ; preds = %52, %17
  call void @llvm.lifetime.end.p0(i64 8, ptr %4) #11
  %58 = load i32, ptr %5, align 4
  switch i32 %58, label %62 [
    i32 2, label %59
    i32 1, label %60
  ]

59:                                               ; preds = %57
  store i32 0, ptr %2, align 4
  br label %60

60:                                               ; preds = %59, %57, %10
  %61 = load i32, ptr %2, align 4
  ret i32 %61

62:                                               ; preds = %57
  unreachable
}

; Function Attrs: nounwind uwtable
define dso_local i32 @functionLibCreateFunction(ptr noundef %0, ptr noundef %1, ptr noundef %2, ptr noundef %3, i64 noundef %4, ptr noundef %5) #1 {
  %7 = alloca i32, align 4
  %8 = alloca ptr, align 8
  %9 = alloca ptr, align 8
  %10 = alloca ptr, align 8
  %11 = alloca ptr, align 8
  %12 = alloca i64, align 8
  %13 = alloca ptr, align 8
  %14 = alloca ptr, align 8
  %15 = alloca %struct.functionInfo, align 8
  %16 = alloca i32, align 4
  store ptr %0, ptr %8, align 8, !tbaa !57
  store ptr %1, ptr %9, align 8, !tbaa !10
  store ptr %2, ptr %10, align 8, !tbaa !58
  store ptr %3, ptr %11, align 8, !tbaa !57
  store i64 %4, ptr %12, align 8, !tbaa !59
  store ptr %5, ptr %13, align 8, !tbaa !60
  %17 = load ptr, ptr %8, align 8, !tbaa !57
  %18 = call i32 @functionsVerifyName(ptr noundef %17)
  %19 = icmp ne i32 %18, 0
  br i1 %19, label %20, label %23

20:                                               ; preds = %6
  %21 = call ptr @sdsnew(ptr noundef @.str)
  %22 = load ptr, ptr %13, align 8, !tbaa !60
  store ptr %21, ptr %22, align 8, !tbaa !57
  store i32 -1, ptr %7, align 4
  br label %66

23:                                               ; preds = %6
  %24 = load ptr, ptr %10, align 8, !tbaa !58
  %25 = getelementptr inbounds nuw %struct.functionLibInfo, ptr %24, i32 0, i32 1
  %26 = load ptr, ptr %25, align 8, !tbaa !62
  %27 = load ptr, ptr %8, align 8, !tbaa !57
  %28 = call ptr @dictFetchValue(ptr noundef %26, ptr noundef %27)
  %29 = icmp ne ptr %28, null
  br i1 %29, label %30, label %33

30:                                               ; preds = %23
  %31 = call ptr @sdsnew(ptr noundef @.str.1)
  %32 = load ptr, ptr %13, align 8, !tbaa !60
  store ptr %31, ptr %32, align 8, !tbaa !57
  store i32 -1, ptr %7, align 4
  br label %66

33:                                               ; preds = %23
  call void @llvm.lifetime.start.p0(i64 8, ptr %14) #11
  %34 = call noalias ptr @zmalloc(i64 noundef 40) #12
  store ptr %34, ptr %14, align 8, !tbaa !25
  %35 = load ptr, ptr %14, align 8, !tbaa !25
  %36 = getelementptr inbounds nuw %struct.functionInfo, ptr %15, i32 0, i32 0
  %37 = load ptr, ptr %8, align 8, !tbaa !57
  store ptr %37, ptr %36, align 8, !tbaa !27
  %38 = getelementptr inbounds nuw %struct.functionInfo, ptr %15, i32 0, i32 1
  %39 = load ptr, ptr %9, align 8, !tbaa !10
  store ptr %39, ptr %38, align 8, !tbaa !37
  %40 = getelementptr inbounds nuw %struct.functionInfo, ptr %15, i32 0, i32 2
  %41 = load ptr, ptr %10, align 8, !tbaa !58
  store ptr %41, ptr %40, align 8, !tbaa !32
  %42 = getelementptr inbounds nuw %struct.functionInfo, ptr %15, i32 0, i32 3
  %43 = load ptr, ptr %11, align 8, !tbaa !57
  store ptr %43, ptr %42, align 8, !tbaa !31
  %44 = getelementptr inbounds nuw %struct.functionInfo, ptr %15, i32 0, i32 4
  %45 = load i64, ptr %12, align 8, !tbaa !59
  store i64 %45, ptr %44, align 8, !tbaa !63
  call void @llvm.memcpy.p0.p0.i64(ptr align 8 %35, ptr align 8 %15, i64 40, i1 false), !tbaa.struct !64
  call void @llvm.lifetime.start.p0(i64 4, ptr %16) #11
  %46 = load ptr, ptr %10, align 8, !tbaa !58
  %47 = getelementptr inbounds nuw %struct.functionLibInfo, ptr %46, i32 0, i32 1
  %48 = load ptr, ptr %47, align 8, !tbaa !62
  %49 = load ptr, ptr %14, align 8, !tbaa !25
  %50 = getelementptr inbounds nuw %struct.functionInfo, ptr %49, i32 0, i32 0
  %51 = load ptr, ptr %50, align 8, !tbaa !27
  %52 = load ptr, ptr %14, align 8, !tbaa !25
  %53 = call i32 @dictAdd(ptr noundef %48, ptr noundef %51, ptr noundef %52)
  store i32 %53, ptr %16, align 4, !tbaa !54
  %54 = load i32, ptr %16, align 4, !tbaa !54
  %55 = icmp eq i32 %54, 0
  %56 = xor i1 %55, true
  %57 = xor i1 %56, true
  %58 = zext i1 %57 to i32
  %59 = sext i32 %58 to i64
  %60 = call i64 @llvm.expect.i64(i64 %59, i64 1)
  %61 = icmp ne i64 %60, 0
  br i1 %61, label %62, label %63

62:                                               ; preds = %33
  br label %65

63:                                               ; preds = %33
  call void @_serverAssert(ptr noundef @.str.2, ptr noundef @.str.3, i32 noundef 262)
  call void @abort() #13
  unreachable

64:                                               ; No predecessors!
  br label %65

65:                                               ; preds = %64, %62
  store i32 0, ptr %7, align 4
  call void @llvm.lifetime.end.p0(i64 4, ptr %16) #11
  call void @llvm.lifetime.end.p0(i64 8, ptr %14) #11
  br label %66

66:                                               ; preds = %65, %30, %20
  %67 = load i32, ptr %7, align 4
  ret i32 %67
}