; Function Attrs: nounwind uwtable
define dso_local range(i32 -1, 1) i32 @functionLibCreateFunction(ptr noundef %0, ptr noundef %1, ptr noundef %2, ptr noundef %3, i64 noundef %4, ptr noundef writeonly captures(none) %5) local_unnamed_addr #1 {
  %7 = getelementptr inbounds i8, ptr %0, i64 -1
  %8 = load i8, ptr %7, align 1, !tbaa !44
  %9 = zext i8 %8 to i32
  %10 = and i32 %9, 7
  switch i32 %10, label %.sink.split [
    i32 0, label %11
    i32 1, label %14
    i32 2, label %18
    i32 3, label %22
    i32 4, label %26
  ]

11:                                               ; preds = %6
  %12 = lshr i32 %9, 3
  %13 = zext nneg i32 %12 to i64
  br label %sdslen.exit.i

14:                                               ; preds = %6
  %15 = getelementptr inbounds i8, ptr %0, i64 -3
  %16 = load i8, ptr %15, align 1, !tbaa !44
  %17 = zext i8 %16 to i64
  br label %sdslen.exit.i

18:                                               ; preds = %6
  %19 = getelementptr inbounds i8, ptr %0, i64 -5
  %20 = load i16, ptr %19, align 1, !tbaa !45
  %21 = zext i16 %20 to i64
  br label %sdslen.exit.i

22:                                               ; preds = %6
  %23 = getelementptr inbounds i8, ptr %0, i64 -9
  %24 = load i32, ptr %23, align 1, !tbaa !47
  %25 = zext i32 %24 to i64
  br label %sdslen.exit.i

26:                                               ; preds = %6
  %27 = getelementptr inbounds i8, ptr %0, i64 -17
  %28 = load i64, ptr %27, align 1, !tbaa !49
  br label %sdslen.exit.i

sdslen.exit.i:                                    ; preds = %26, %22, %18, %14, %11
  %.0.i.i = phi i64 [ %28, %26 ], [ %25, %22 ], [ %21, %18 ], [ %17, %14 ], [ %13, %11 ]
  %29 = icmp eq i64 %.0.i.i, 0
  br i1 %29, label %.sink.split, label %.preheader.i

.preheader.i:                                     ; preds = %sdslen.exit.i
  %30 = getelementptr inbounds i8, ptr %0, i64 -17
  %31 = getelementptr inbounds i8, ptr %0, i64 -9
  %32 = getelementptr inbounds i8, ptr %0, i64 -5
  %33 = getelementptr inbounds i8, ptr %0, i64 -3
  %34 = lshr i32 %9, 3
  %35 = zext nneg i32 %34 to i64
  br label %36

36:                                               ; preds = %.thread.i, %.preheader.i
  %.028.i = phi i64 [ %57, %.thread.i ], [ 0, %.preheader.i ]
  switch i32 %10, label %sdslen.exit33.i [
    i32 0, label %37
    i32 1, label %38
    i32 2, label %41
    i32 3, label %44
    i32 4, label %47
  ]

37:                                               ; preds = %36
  br label %sdslen.exit33.i

38:                                               ; preds = %36
  %39 = load i8, ptr %33, align 1, !tbaa !44
  %40 = zext i8 %39 to i64
  br label %sdslen.exit33.i

41:                                               ; preds = %36
  %42 = load i16, ptr %32, align 1, !tbaa !45
  %43 = zext i16 %42 to i64
  br label %sdslen.exit33.i

44:                                               ; preds = %36
  %45 = load i32, ptr %31, align 1, !tbaa !47
  %46 = zext i32 %45 to i64
  br label %sdslen.exit33.i

47:                                               ; preds = %36
  %48 = load i64, ptr %30, align 1, !tbaa !49
  br label %sdslen.exit33.i

sdslen.exit33.i:                                  ; preds = %47, %44, %41, %38, %37, %36
  %.0.i32.i = phi i64 [ %48, %47 ], [ %46, %44 ], [ %43, %41 ], [ %40, %38 ], [ %35, %37 ], [ 0, %36 ]
  %.not.i = icmp ult i64 %.028.i, %.0.i32.i
  br i1 %.not.i, label %49, label %58

49:                                               ; preds = %sdslen.exit33.i
  %50 = getelementptr inbounds nuw i8, ptr %0, i64 %.028.i
  %51 = load i8, ptr %50, align 1, !tbaa !44
  %52 = and i8 %51, -33
  %53 = add i8 %52, -65
  %or.cond29.i = icmp ult i8 %53, 26
  br i1 %or.cond29.i, label %.thread.i, label %54

54:                                               ; preds = %49
  %55 = add i8 %51, -48
  %or.cond8.i = icmp ult i8 %55, 10
  %56 = icmp eq i8 %51, 95
  %or.cond11.i = or i1 %56, %or.cond8.i
  br i1 %or.cond11.i, label %.thread.i, label %.sink.split

.thread.i:                                        ; preds = %54, %49
  %57 = add nuw i64 %.028.i, 1
  br label %36, !llvm.loop !50

58:                                               ; preds = %sdslen.exit33.i
  %59 = getelementptr inbounds nuw i8, ptr %2, i64 8
  %60 = load ptr, ptr %59, align 8, !tbaa !30
  %61 = tail call ptr @dictFetchValue(ptr noundef %60, ptr noundef nonnull %0) #12
  %.not15 = icmp eq ptr %61, null
  br i1 %.not15, label %62, label %.sink.split

62:                                               ; preds = %58
  %63 = tail call noalias dereferenceable_or_null(40) ptr @zmalloc(i64 noundef 40) #13
  store ptr %0, ptr %63, align 8, !tbaa !51
  %.sroa.2.0..sroa_idx = getelementptr inbounds nuw i8, ptr %63, i64 8
  store ptr %1, ptr %.sroa.2.0..sroa_idx, align 8, !tbaa !52
  %.sroa.3.0..sroa_idx = getelementptr inbounds nuw i8, ptr %63, i64 16
  store ptr %2, ptr %.sroa.3.0..sroa_idx, align 8, !tbaa !53
  %.sroa.4.0..sroa_idx = getelementptr inbounds nuw i8, ptr %63, i64 24
  store ptr %3, ptr %.sroa.4.0..sroa_idx, align 8, !tbaa !51
  %.sroa.5.0..sroa_idx = getelementptr inbounds nuw i8, ptr %63, i64 32
  store i64 %4, ptr %.sroa.5.0..sroa_idx, align 8, !tbaa !49
  %64 = load ptr, ptr %59, align 8, !tbaa !30
  %65 = tail call i32 @dictAdd(ptr noundef %64, ptr noundef nonnull %0, ptr noundef nonnull %63) #12
  %66 = icmp eq i32 %65, 0
  br i1 %66, label %69, label %67, !prof !54

67:                                               ; preds = %62
  tail call void @_serverAssert(ptr noundef nonnull @.str.2, ptr noundef nonnull @.str.3, i32 noundef 262) #12
  tail call void @abort() #14
  unreachable

.sink.split:                                      ; preds = %54, %58, %sdslen.exit.i, %6
  %.str.1.sink = phi ptr [ @.str, %6 ], [ @.str, %sdslen.exit.i ], [ @.str.1, %58 ], [ @.str, %54 ]
  %68 = tail call ptr @sdsnew(ptr noundef nonnull %.str.1.sink) #12
  store ptr %68, ptr %5, align 8, !tbaa !51
  br label %69

69:                                               ; preds = %.sink.split, %62
  %.0 = phi i32 [ 0, %62 ], [ -1, %.sink.split ]
  ret i32 %.0
}